Certificate:
    Data:
        Version: 3 (0x2)
        Serial Number: 5 (0x5)
    Signature Algorithm: sha1WithRSAEncryption
        Issuer: C=US, ST=North Carolina, L=Raleigh, O=Triangle MicroWorks, Inc., CN=Root CA
        Validity
            Not Before: May 21 13:52:39 2018 GMT
            Not After : Oct  5 13:52:39 2045 GMT
        Subject: CN=Common, ST=North Carolina, C=US, O=Triangle MicroWorks, Inc.
        Subject Public Key Info:
            Public Key Algorithm: dsaEncryption
                pub: 
                    41:94:94:39:c3:1e:59:43:d1:d8:ae:5a:46:17:ce:
                    32:6e:6d:de:29:b4:e0:a0:47:83:1c:05:32:1a:18:
                    f1:02:16:64:f2:b2:ea:4c:c3:fa:37:63:a6:94:dd:
                    64:cb:94:2b:25:f6:20:42:63:29:a7:29:0d:02:f7:
                    27:89:c7:fa:17:b5:be:10:88:14:f5:54:c8:f6:9b:
                    16:f6:28:06:86:bd:86:a3:a6:96:84:e8:0b:5f:25:
                    24:0f:26:96:4c:36:04:51:d7:a7:de:b6:23:98:d4:
                    eb:32:04:ab:69:ec:c0:54:1e:75:0e:99:83:45:da:
                    c1:49:5b:d7:f4:fc:c7:d6:96:17:d6:41:3c:a5:ba:
                    4b:c4:fe:40:17:c2:96:8c:82:2c:31:35:c1:43:b5:
                    76:f0:8e:7a:a2:b9:98:9e:8f:4f:eb:60:84:a8:2d:
                    c5:90:ac:c3:1b:29:d4:12:a7:2d:e3:ef:3a:2e:e2:
                    c4:65:59:02:1d:46:b3:06:26:86:f0:e8:f8:4d:b9:
                    9d:67:13:02:05:e0:32:2c:8d:ee:60:a0:5e:af:fd:
                    e1:53:d0:9e:5f:55:38:72:ff:fe:07:7b:4b:05:f5:
                    bc:d2:ed:89:20:70:39:d4:54:ed:0d:06:be:57:45:
                    f8:5f:f7:c4:4a:ef:44:e4:7e:18:f2:52:8f:9f:c3:
                    0a
                P:   
                    00:ee:4e:1d:a6:13:1a:7f:ec:7e:eb:0b:84:cf:81:
                    f8:3c:59:e8:f1:88:64:37:39:1b:01:c9:fd:23:67:
                    bc:c0:2b:82:00:7e:c8:74:80:89:35:ca:88:32:5a:
                    0b:5f:c0:ae:63:cc:51:41:34:41:9c:6b:d5:6b:54:
                    2d:8e:15:3a:aa:4b:0a:55:b3:ef:0f:96:1b:ce:08:
                    72:4c:31:12:2d:32:dc:06:ec:9f:83:f9:aa:a5:dd:
                    5d:8c:45:ef:1d:a9:13:1a:54:af:d5:85:a6:3d:f0:
                    39:d3:e9:21:76:3c:7c:07:20:ba:a7:ba:ae:9a:24:
                    70:9f:01:36:bf:77:b0:47:a8:6c:19:17:89:a9:29:
                    a1:9e:09:7e:78:2e:4b:45:65:b5:09:95:e7:02:61:
                    90:4d:1c:06:48:6f:6b:46:3e:7e:83:46:5b:2a:31:
                    a4:0a:eb:39:35:57:63:80:51:53:51:2e:2c:d3:31:
                    72:1e:a5:99:de:21:19:07:17:67:03:bb:8d:4b:c5:
                    17:a6:d2:bc:5d:20:ad:19:86:90:bc:73:64:00:b5:
                    e3:3b:e1:30:b5:e4:30:5c:f1:eb:19:6c:9b:e1:6b:
                    18:b8:bc:78:df:15:26:71:ca:fe:0a:33:4c:1b:71:
                    ba:3c:89:be:e0:f1:a0:36:83:d0:44:0d:64:bd:d9:
                    be:2f
                Q:   
                    00:b2:d1:25:01:5c:4f:f5:a2:5b:13:7d:14:7f:fb:
                    b1:d8:b0:df:6a:83:8b:52:07:70:eb:2e:f8:1f:36:
                    9f:01:f5
                G:   
                    50:aa:b7:4c:d4:ab:06:64:8e:19:27:1a:2c:35:58:
                    cd:9c:af:63:e8:de:0f:33:f3:39:81:62:94:90:a1:
                    b2:39:9e:da:57:73:89:6c:e5:da:25:64:fc:65:1b:
                    49:d0:43:b1:b2:fd:b3:f9:f0:f3:b7:89:c1:03:a3:
                    f3:79:a2:10:44:5f:84:d8:1e:03:de:db:73:80:99:
                    11:ed:cc:13:70:81:ee:04:1a:62:e1:75:18:79:7e:
                    24:53:88:6b:51:8c:05:ae:79:b3:e1:86:8c:bf:7c:
                    dc:2a:4a:4a:f7:57:e4:77:8c:f6:dc:73:b0:73:a4:
                    bb:d2:4c:09:e4:fc:04:b5:a9:65:45:0d:e4:df:92:
                    0a:81:83:d8:d5:85:ff:f8:d6:80:51:26:93:fe:b5:
                    5d:50:88:70:27:33:db:6f:a5:c5:03:e0:db:92:d2:
                    9b:e7:ec:18:90:12:19:3a:0f:83:c8:a1:15:5e:4d:
                    39:bf:23:50:39:47:59:fd:10:92:bf:17:2c:ab:0e:
                    ce:38:05:65:d1:ed:96:d9:60:d2:1d:4f:31:e5:b4:
                    28:29:d7:1d:6b:07:78:24:78:3b:9d:d4:41:aa:6b:
                    67:75:e8:9f:cb:33:f7:ae:46:87:e0:71:bb:88:77:
                    96:14:84:9c:77:b9:d3:fc:47:b5:8a:77:d2:6d:42:
                    9a
        X509v3 extensions:
            X509v3 Basic Constraints: 
                CA:TRUE
            X509v3 Subject Key Identifier: 
                AE:8D:B4:C6:AE:AC:51:4F:B2:C9:41:11:61:CD:A8:7B:BF:71:28:97
            X509v3 Authority Key Identifier: 
                keyid:31:46:F5:19:1C:41:4A:B3:BC:A0:E2:9B:D3:98:0C:93:35:71:06:01
                DirName:/C=US/ST=North Carolina/L=Raleigh/O=Triangle MicroWorks, Inc./CN=Root CA
                serial:8B:F6:C4:C2:31:2C:3C:4C

            1.2.840.10070.8.1: 
                0%0#0......testaor....
IEC62351-8
.....
    Signature Algorithm: sha1WithRSAEncryption
         2b:e2:2c:49:1b:7d:69:e4:33:a2:3b:34:64:0e:66:1e:78:a3:
         b5:d5:49:de:98:56:14:ba:9d:22:b3:f2:d7:78:76:f2:5d:3f:
         24:aa:42:8e:6b:32:36:f9:d2:a4:b8:18:63:57:2a:53:07:98:
         cd:5d:cb:3e:2e:3d:12:25:62:83:6a:5f:e0:9c:b1:cc:25:82:
         6b:4f:02:2a:5f:6d:a5:6e:11:e8:3e:ad:ef:f7:0c:a2:f6:1e:
         e1:b1:3f:e1:d7:f1:8c:83:55:0b:2e:30:eb:64:f3:dd:20:70:
         5b:69:04:9e:77:91:17:5e:95:1f:59:a2:27:fa:5c:d7:c3:3c:
         f4:01:19:2e:27:5a:23:53:a2:a3:3d:ad:3e:7c:5f:6f:c2:c8:
         14:20:67:bd:52:43:be:e4:8f:10:3d:30:1d:ba:2a:8f:d6:b7:
         cd:2e:ec:e3:93:1f:f0:95:a1:9d:af:f1:fe:73:2a:ee:c1:8a:
         6c:df:8f:48:e1:80:5d:bb:6b:00:48:6c:42:5f:ca:7b:57:49:
         88:04:59:36:f5:70:ef:b2:0a:f9:10:3e:53:39:5d:c7:51:25:
         6e:b2:f4:76:51:d8:7a:f3:9c:9a:13:41:c1:7d:0b:2c:3c:14:
         af:cf:ae:34:ae:78:1d:b0:31:61:16:14:0f:88:6b:e3:09:c0:
         7d:6f:69:f2
-----BEGIN CERTIFICATE-----
MIIGcjCCBVqgAwIBAgIBBTANBgkqhkiG9w0BAQUFADBuMQswCQYDVQQGEwJVUzEX
MBUGA1UECAwOTm9ydGggQ2Fyb2xpbmExEDAOBgNVBAcMB1JhbGVpZ2gxIjAgBgNV
BAoMGVRyaWFuZ2xlIE1pY3JvV29ya3MsIEluYy4xEDAOBgNVBAMMB1Jvb3QgQ0Ew
HhcNMTgwNTIxMTM1MjM5WhcNNDUxMDA1MTM1MjM5WjBbMQ8wDQYDVQQDDAZDb21t
b24xFzAVBgNVBAgMDk5vcnRoIENhcm9saW5hMQswCQYDVQQGEwJVUzEiMCAGA1UE
CgwZVHJpYW5nbGUgTWljcm9Xb3JrcywgSW5jLjCCA0YwggI5BgcqhkjOOAQBMIIC
LAKCAQEA7k4dphMaf+x+6wuEz4H4PFno8YhkNzkbAcn9I2e8wCuCAH7IdICJNcqI
MloLX8CuY8xRQTRBnGvVa1QtjhU6qksKVbPvD5YbzghyTDESLTLcBuyfg/mqpd1d
jEXvHakTGlSv1YWmPfA50+khdjx8ByC6p7qumiRwnwE2v3ewR6hsGReJqSmhngl+
eC5LRWW1CZXnAmGQTRwGSG9rRj5+g0ZbKjGkCus5NVdjgFFTUS4s0zFyHqWZ3iEZ
BxdnA7uNS8UXptK8XSCtGYaQvHNkALXjO+EwteQwXPHrGWyb4WsYuLx43xUmccr+
CjNMG3G6PIm+4PGgNoPQRA1kvdm+LwIhALLRJQFcT/WiWxN9FH/7sdiw32qDi1IH
cOsu+B82nwH1AoIBAFCqt0zUqwZkjhknGiw1WM2cr2Po3g8z8zmBYpSQobI5ntpX
c4ls5dolZPxlG0nQQ7Gy/bP58PO3icEDo/N5ohBEX4TYHgPe23OAmRHtzBNwge4E
GmLhdRh5fiRTiGtRjAWuebPhhoy/fNwqSkr3V+R3jPbcc7BzpLvSTAnk/AS1qWVF
DeTfkgqBg9jVhf/41oBRJpP+tV1QiHAnM9tvpcUD4NuS0pvn7BiQEhk6D4PIoRVe
TTm/I1A5R1n9EJK/FyyrDs44BWXR7ZbZYNIdTzHltCgp1x1rB3gkeDud1EGqa2d1
6J/LM/euRofgcbuId5YUhJx3udP8R7WKd9JtQpoDggEFAAKCAQBBlJQ5wx5ZQ9HY
rlpGF84ybm3eKbTgoEeDHAUyGhjxAhZk8rLqTMP6N2OmlN1ky5QrJfYgQmMppykN
Avcnicf6F7W+EIgU9VTI9psW9igGhr2Go6aWhOgLXyUkDyaWTDYEUden3rYjmNTr
MgSraezAVB51DpmDRdrBSVvX9PzH1pYX1kE8pbpLxP5AF8KWjIIsMTXBQ7V28I56
ormYno9P62CEqC3FkKzDGynUEqct4+86LuLEZVkCHUazBiaG8Oj4TbmdZxMCBeAy
LI3uYKBer/3hU9CeX1U4cv/+B3tLBfW80u2JIHA51FTtDQa+V0X4X/fESu9E5H4Y
8lKPn8MKo4IBCDCCAQQwDAYDVR0TBAUwAwEB/zAdBgNVHQ4EFgQUro20xq6sUU+y
yUERYc2oe79xKJcwgaAGA1UdIwSBmDCBlYAUMUb1GRxBSrO8oOKb05gMkzVxBgGh
cqRwMG4xCzAJBgNVBAYTAlVTMRcwFQYDVQQIDA5Ob3J0aCBDYXJvbGluYTEQMA4G
A1UEBwwHUmFsZWlnaDEiMCAGA1UECgwZVHJpYW5nbGUgTWljcm9Xb3JrcywgSW5j
LjEQMA4GA1UEAwwHUm9vdCBDQYIJAIv2xMIxLDxMMDIGByqGSM5WCAEEJzAlMCMw
AwIBAgwHdGVzdGFvcgIBAQwKSUVDNjIzNTEtOAoBAQIBATANBgkqhkiG9w0BAQUF
AAOCAQEAK+IsSRt9aeQzojs0ZA5mHnijtdVJ3phWFLqdIrPy13h28l0/JKpCjmsy
NvnSpLgYY1cqUweYzV3LPi49EiVig2pf4JyxzCWCa08CKl9tpW4R6D6t7/cMovYe
4bE/4dfxjINVCy4w62Tz3SBwW2kEnneRF16VH1miJ/pc18M89AEZLidaI1Oioz2t
Pnxfb8LIFCBnvVJDvuSPED0wHboqj9a3zS7s45Mf8JWhna/x/nMq7sGKbN+PSOGA
XbtrAEhsQl/Ke1dJiARZNvVw77IK+RA+Uzldx1ElbrL0dlHYevOcmhNBwX0LLDwU
r8+uNK54HbAxYRYUD4hr4wnAfW9p8g==
-----END CERTIFICATE-----
