Certificate:
    Data:
        Version: 3 (0x2)
        Serial Number: 1 (0x1)
    Signature Algorithm: dsaWithSHA1
        Issuer: C=US, ST=North Carolina, L=Raleigh, O=Triangle MicroWorks, Inc., CN=Root CA
        Validity
            Not Before: May 21 13:51:59 2018 GMT
            Not After : Oct  5 13:51:59 2045 GMT
        Subject: CN=Common, ST=North Carolina, C=US, O=Triangle MicroWorks, Inc.
        Subject Public Key Info:
            Public Key Algorithm: dsaEncryption
                pub: 
                    62:52:dc:78:03:4e:d2:bc:57:57:5c:25:a0:1e:62:
                    b9:ba:29:43:1a:95:4f:40:a2:e1:7f:c0:a0:d7:3a:
                    c4:3c:69:7a:b2:c7:e6:34:95:71:8f:41:7e:0d:9a:
                    50:07:22:c8:01:89:d2:25:ee:b7:fc:e2:d8:42:b7:
                    22:79:11:16:a5:3c:2b:1c:65:01:91:a0:34:f6:b0:
                    27:e4:eb:d6:6b:8d:4e:c3:18:48:ac:f8:4d:e8:85:
                    70:5e:e6:e9:ff:f5:fc:b1:12:13:5f:b4:f2:57:b3:
                    5f:30:5b:c6:63:91:60:dc:2a:1b:c2:b8:9a:aa:d0:
                    a4:70:12:b7:7e:47:b6:5f
                P:   
                    00:92:55:ad:b7:52:7a:fe:70:76:2a:fa:df:8c:49:
                    f1:75:a8:93:3f:24:d9:22:a1:a6:14:55:53:d7:59:
                    67:ab:1d:30:97:f0:f5:e8:13:d9:e1:f1:e7:ce:44:
                    ed:8a:4a:90:22:76:24:11:eb:52:89:da:c2:e3:b8:
                    a4:49:a9:70:d5:f1:1e:4d:a7:57:63:85:04:f2:7c:
                    b4:34:b2:a3:e3:02:6c:ae:34:f7:d5:ca:37:d3:82:
                    28:01:db:ca:8b:7d:9c:de:b7:8b:f6:bf:8a:48:65:
                    5a:06:01:ee:e7:ac:f1:8d:aa:3a:59:12:16:c7:44:
                    00:87:38:d2:91:71:74:3c:a1
                Q:   
                    00:bd:e1:f8:ab:2f:a5:2b:c8:9e:c2:1d:99:b9:f1:
                    2b:05:0a:1f:ec:35
                G:   
                    70:3c:7e:e2:c9:f3:0a:4a:9c:ba:4b:69:4a:15:90:
                    89:3e:f5:89:7c:39:42:23:ae:67:95:52:0a:5f:e4:
                    eb:9b:ec:a6:27:24:2b:c5:2b:04:9d:18:7b:03:2d:
                    3f:50:a6:34:91:b6:ab:3c:da:b2:69:41:d0:71:56:
                    c0:58:ae:fe:02:cb:f5:b1:03:36:57:dc:70:0e:41:
                    00:a7:7c:bc:65:f4:b4:a2:bb:25:69:92:ca:d5:57:
                    e0:76:da:f6:8a:47:ab:7a:2f:59:e9:d1:3c:58:a2:
                    8b:2f:a9:66:af:81:ed:17:d5:8b:69:ea:ac:4e:3a:
                    e9:5b:6a:1c:9b:b0:ad:47
        X509v3 extensions:
            X509v3 Basic Constraints: 
                CA:TRUE
            X509v3 Subject Key Identifier: 
                A6:6D:97:1D:E4:05:D1:E8:A8:24:41:A2:68:5F:B0:7D:F9:08:8A:C2
            X509v3 Authority Key Identifier: 
                keyid:57:F8:33:FA:22:6C:C9:E4:EC:AF:53:8C:19:A6:EF:23:B0:2B:B3:E2
                DirName:/C=US/ST=North Carolina/L=Raleigh/O=Triangle MicroWorks, Inc./CN=Root CA
                serial:89:09:2C:D0:D5:83:62:EB

            1.2.840.10070.8.1: 
                0%0#0......testaor....
IEC62351-8
.....
    Signature Algorithm: dsaWithSHA1
         r:   
             46:85:09:37:e0:03:db:ec:fe:3e:e6:3d:2a:dd:3d:
             69:87:8e:bb:b9
         s:   
             58:3a:8f:9a:76:4b:3e:f7:6d:2a:53:b6:64:a2:26:
             e6:7d:da:52:b4
-----BEGIN CERTIFICATE-----
MIIEBjCCA8agAwIBAgIBATAJBgcqhkjOOAQDMG4xCzAJBgNVBAYTAlVTMRcwFQYD
VQQIDA5Ob3J0aCBDYXJvbGluYTEQMA4GA1UEBwwHUmFsZWlnaDEiMCAGA1UECgwZ
VHJpYW5nbGUgTWljcm9Xb3JrcywgSW5jLjEQMA4GA1UEAwwHUm9vdCBDQTAeFw0x
ODA1MjExMzUxNTlaFw00NTEwMDUxMzUxNTlaMFsxDzANBgNVBAMMBkNvbW1vbjEX
MBUGA1UECAwOTm9ydGggQ2Fyb2xpbmExCzAJBgNVBAYTAlVTMSIwIAYDVQQKDBlU
cmlhbmdsZSBNaWNyb1dvcmtzLCBJbmMuMIIBtjCCASsGByqGSM44BAEwggEeAoGB
AJJVrbdSev5wdir634xJ8XWokz8k2SKhphRVU9dZZ6sdMJfw9egT2eHx585E7YpK
kCJ2JBHrUonawuO4pEmpcNXxHk2nV2OFBPJ8tDSyo+MCbK4099XKN9OCKAHbyot9
nN63i/a/ikhlWgYB7ues8Y2qOlkSFsdEAIc40pFxdDyhAhUAveH4qy+lK8iewh2Z
ufErBQof7DUCgYBwPH7iyfMKSpy6S2lKFZCJPvWJfDlCI65nlVIKX+Trm+ymJyQr
xSsEnRh7Ay0/UKY0kbarPNqyaUHQcVbAWK7+Asv1sQM2V9xwDkEAp3y8ZfS0orsl
aZLK1Vfgdtr2ikerei9Z6dE8WKKLL6lmr4HtF9WLaeqsTjrpW2ocm7CtRwOBhAAC
gYBiUtx4A07SvFdXXCWgHmK5uilDGpVPQKLhf8Cg1zrEPGl6ssfmNJVxj0F+DZpQ
ByLIAYnSJe63/OLYQrcieREWpTwrHGUBkaA09rAn5OvWa41OwxhIrPhN6IVwXubp
//X8sRITX7TyV7NfMFvGY5Fg3CobwriaqtCkcBK3fke2X6OCAQgwggEEMAwGA1Ud
EwQFMAMBAf8wHQYDVR0OBBYEFKZtlx3kBdHoqCRBomhfsH35CIrCMIGgBgNVHSME
gZgwgZWAFFf4M/oibMnk7K9TjBmm7yOwK7PioXKkcDBuMQswCQYDVQQGEwJVUzEX
MBUGA1UECAwOTm9ydGggQ2Fyb2xpbmExEDAOBgNVBAcMB1JhbGVpZ2gxIjAgBgNV
BAoMGVRyaWFuZ2xlIE1pY3JvV29ya3MsIEluYy4xEDAOBgNVBAMMB1Jvb3QgQ0GC
CQCJCSzQ1YNi6zAyBgcqhkjOVggBBCcwJTAjMAMCAQIMB3Rlc3Rhb3ICAQEMCklF
QzYyMzUxLTgKAQECAQEwCQYHKoZIzjgEAwMvADAsAhRGhQk34APb7P4+5j0q3T1p
h467uQIUWDqPmnZLPvdtKlO2ZKIm5n3aUrQ=
-----END CERTIFICATE-----
