Certificate:
    Data:
        Version: 3 (0x2)
        Serial Number: 2 (0x2)
    Signature Algorithm: dsaWithSHA1
        Issuer: C=US, ST=North Carolina, L=Raleigh, O=Triangle MicroWorks, Inc., CN=Root CA
        Validity
            Not Before: May 21 13:52:04 2018 GMT
            Not After : Oct  5 13:52:04 2045 GMT
        Subject: CN=Common, ST=North Carolina, C=US, O=Triangle MicroWorks, Inc.
        Subject Public Key Info:
            Public Key Algorithm: dsaEncryption
                pub: 
                    41:94:94:39:c3:1e:59:43:d1:d8:ae:5a:46:17:ce:
                    32:6e:6d:de:29:b4:e0:a0:47:83:1c:05:32:1a:18:
                    f1:02:16:64:f2:b2:ea:4c:c3:fa:37:63:a6:94:dd:
                    64:cb:94:2b:25:f6:20:42:63:29:a7:29:0d:02:f7:
                    27:89:c7:fa:17:b5:be:10:88:14:f5:54:c8:f6:9b:
                    16:f6:28:06:86:bd:86:a3:a6:96:84:e8:0b:5f:25:
                    24:0f:26:96:4c:36:04:51:d7:a7:de:b6:23:98:d4:
                    eb:32:04:ab:69:ec:c0:54:1e:75:0e:99:83:45:da:
                    c1:49:5b:d7:f4:fc:c7:d6:96:17:d6:41:3c:a5:ba:
                    4b:c4:fe:40:17:c2:96:8c:82:2c:31:35:c1:43:b5:
                    76:f0:8e:7a:a2:b9:98:9e:8f:4f:eb:60:84:a8:2d:
                    c5:90:ac:c3:1b:29:d4:12:a7:2d:e3:ef:3a:2e:e2:
                    c4:65:59:02:1d:46:b3:06:26:86:f0:e8:f8:4d:b9:
                    9d:67:13:02:05:e0:32:2c:8d:ee:60:a0:5e:af:fd:
                    e1:53:d0:9e:5f:55:38:72:ff:fe:07:7b:4b:05:f5:
                    bc:d2:ed:89:20:70:39:d4:54:ed:0d:06:be:57:45:
                    f8:5f:f7:c4:4a:ef:44:e4:7e:18:f2:52:8f:9f:c3:
                    0a
                P:   
                    00:ee:4e:1d:a6:13:1a:7f:ec:7e:eb:0b:84:cf:81:
                    f8:3c:59:e8:f1:88:64:37:39:1b:01:c9:fd:23:67:
                    bc:c0:2b:82:00:7e:c8:74:80:89:35:ca:88:32:5a:
                    0b:5f:c0:ae:63:cc:51:41:34:41:9c:6b:d5:6b:54:
                    2d:8e:15:3a:aa:4b:0a:55:b3:ef:0f:96:1b:ce:08:
                    72:4c:31:12:2d:32:dc:06:ec:9f:83:f9:aa:a5:dd:
                    5d:8c:45:ef:1d:a9:13:1a:54:af:d5:85:a6:3d:f0:
                    39:d3:e9:21:76:3c:7c:07:20:ba:a7:ba:ae:9a:24:
                    70:9f:01:36:bf:77:b0:47:a8:6c:19:17:89:a9:29:
                    a1:9e:09:7e:78:2e:4b:45:65:b5:09:95:e7:02:61:
                    90:4d:1c:06:48:6f:6b:46:3e:7e:83:46:5b:2a:31:
                    a4:0a:eb:39:35:57:63:80:51:53:51:2e:2c:d3:31:
                    72:1e:a5:99:de:21:19:07:17:67:03:bb:8d:4b:c5:
                    17:a6:d2:bc:5d:20:ad:19:86:90:bc:73:64:00:b5:
                    e3:3b:e1:30:b5:e4:30:5c:f1:eb:19:6c:9b:e1:6b:
                    18:b8:bc:78:df:15:26:71:ca:fe:0a:33:4c:1b:71:
                    ba:3c:89:be:e0:f1:a0:36:83:d0:44:0d:64:bd:d9:
                    be:2f
                Q:   
                    00:b2:d1:25:01:5c:4f:f5:a2:5b:13:7d:14:7f:fb:
                    b1:d8:b0:df:6a:83:8b:52:07:70:eb:2e:f8:1f:36:
                    9f:01:f5
                G:   
                    50:aa:b7:4c:d4:ab:06:64:8e:19:27:1a:2c:35:58:
                    cd:9c:af:63:e8:de:0f:33:f3:39:81:62:94:90:a1:
                    b2:39:9e:da:57:73:89:6c:e5:da:25:64:fc:65:1b:
                    49:d0:43:b1:b2:fd:b3:f9:f0:f3:b7:89:c1:03:a3:
                    f3:79:a2:10:44:5f:84:d8:1e:03:de:db:73:80:99:
                    11:ed:cc:13:70:81:ee:04:1a:62:e1:75:18:79:7e:
                    24:53:88:6b:51:8c:05:ae:79:b3:e1:86:8c:bf:7c:
                    dc:2a:4a:4a:f7:57:e4:77:8c:f6:dc:73:b0:73:a4:
                    bb:d2:4c:09:e4:fc:04:b5:a9:65:45:0d:e4:df:92:
                    0a:81:83:d8:d5:85:ff:f8:d6:80:51:26:93:fe:b5:
                    5d:50:88:70:27:33:db:6f:a5:c5:03:e0:db:92:d2:
                    9b:e7:ec:18:90:12:19:3a:0f:83:c8:a1:15:5e:4d:
                    39:bf:23:50:39:47:59:fd:10:92:bf:17:2c:ab:0e:
                    ce:38:05:65:d1:ed:96:d9:60:d2:1d:4f:31:e5:b4:
                    28:29:d7:1d:6b:07:78:24:78:3b:9d:d4:41:aa:6b:
                    67:75:e8:9f:cb:33:f7:ae:46:87:e0:71:bb:88:77:
                    96:14:84:9c:77:b9:d3:fc:47:b5:8a:77:d2:6d:42:
                    9a
        X509v3 extensions:
            X509v3 Basic Constraints: 
                CA:TRUE
            X509v3 Subject Key Identifier: 
                AE:8D:B4:C6:AE:AC:51:4F:B2:C9:41:11:61:CD:A8:7B:BF:71:28:97
            X509v3 Authority Key Identifier: 
                keyid:94:BB:3D:FF:E5:A2:2A:55:EF:0F:53:8E:1C:C3:7E:FF:42:95:39:9E
                DirName:/C=US/ST=North Carolina/L=Raleigh/O=Triangle MicroWorks, Inc./CN=Root CA
                serial:81:00:C2:30:69:65:F7:09

            1.2.840.10070.8.1: 
                0%0#0......testaor....
IEC62351-8
.....
    Signature Algorithm: dsaWithSHA1
         r:   
             00:8a:fc:5b:fe:5c:52:7a:f5:ea:43:9e:e8:4d:f5:
             11:bd:f2:54:69:e8:0d:d9:25:c6:12:46:98:ce:2d:
             a6:d8:7a
         s:   
             66:04:be:e0:8a:26:44:cc:01:ff:2c:7b:d0:34:b1:
             1d:a4:a7:74:f2:84:71:76:d3:db:52:9f:e1:3d:d8:
             ce:67
-----BEGIN CERTIFICATE-----
MIIFrzCCBVagAwIBAgIBAjAJBgcqhkjOOAQDMG4xCzAJBgNVBAYTAlVTMRcwFQYD
VQQIDA5Ob3J0aCBDYXJvbGluYTEQMA4GA1UEBwwHUmFsZWlnaDEiMCAGA1UECgwZ
VHJpYW5nbGUgTWljcm9Xb3JrcywgSW5jLjEQMA4GA1UEAwwHUm9vdCBDQTAeFw0x
ODA1MjExMzUyMDRaFw00NTEwMDUxMzUyMDRaMFsxDzANBgNVBAMMBkNvbW1vbjEX
MBUGA1UECAwOTm9ydGggQ2Fyb2xpbmExCzAJBgNVBAYTAlVTMSIwIAYDVQQKDBlU
cmlhbmdsZSBNaWNyb1dvcmtzLCBJbmMuMIIDRjCCAjkGByqGSM44BAEwggIsAoIB
AQDuTh2mExp/7H7rC4TPgfg8WejxiGQ3ORsByf0jZ7zAK4IAfsh0gIk1yogyWgtf
wK5jzFFBNEGca9VrVC2OFTqqSwpVs+8PlhvOCHJMMRItMtwG7J+D+aql3V2MRe8d
qRMaVK/VhaY98DnT6SF2PHwHILqnuq6aJHCfATa/d7BHqGwZF4mpKaGeCX54LktF
ZbUJlecCYZBNHAZIb2tGPn6DRlsqMaQK6zk1V2OAUVNRLizTMXIepZneIRkHF2cD
u41LxRem0rxdIK0ZhpC8c2QAteM74TC15DBc8esZbJvhaxi4vHjfFSZxyv4KM0wb
cbo8ib7g8aA2g9BEDWS92b4vAiEAstElAVxP9aJbE30Uf/ux2LDfaoOLUgdw6y74
HzafAfUCggEAUKq3TNSrBmSOGScaLDVYzZyvY+jeDzPzOYFilJChsjme2ldziWzl
2iVk/GUbSdBDsbL9s/nw87eJwQOj83miEERfhNgeA97bc4CZEe3ME3CB7gQaYuF1
GHl+JFOIa1GMBa55s+GGjL983CpKSvdX5HeM9txzsHOku9JMCeT8BLWpZUUN5N+S
CoGD2NWF//jWgFEmk/61XVCIcCcz22+lxQPg25LSm+fsGJASGToPg8ihFV5NOb8j
UDlHWf0Qkr8XLKsOzjgFZdHtltlg0h1PMeW0KCnXHWsHeCR4O53UQaprZ3Xon8sz
965Gh+Bxu4h3lhSEnHe50/xHtYp30m1CmgOCAQUAAoIBAEGUlDnDHllD0diuWkYX
zjJubd4ptOCgR4McBTIaGPECFmTysupMw/o3Y6aU3WTLlCsl9iBCYymnKQ0C9yeJ
x/oXtb4QiBT1VMj2mxb2KAaGvYajppaE6AtfJSQPJpZMNgRR16fetiOY1OsyBKtp
7MBUHnUOmYNF2sFJW9f0/MfWlhfWQTylukvE/kAXwpaMgiwxNcFDtXbwjnqiuZie
j0/rYISoLcWQrMMbKdQSpy3j7zou4sRlWQIdRrMGJobw6PhNuZ1nEwIF4DIsje5g
oF6v/eFT0J5fVThy//4He0sF9bzS7YkgcDnUVO0NBr5XRfhf98RK70TkfhjyUo+f
wwqjggEIMIIBBDAMBgNVHRMEBTADAQH/MB0GA1UdDgQWBBSujbTGrqxRT7LJQRFh
zah7v3EolzCBoAYDVR0jBIGYMIGVgBSUuz3/5aIqVe8PU44cw37/QpU5nqFypHAw
bjELMAkGA1UEBhMCVVMxFzAVBgNVBAgMDk5vcnRoIENhcm9saW5hMRAwDgYDVQQH
DAdSYWxlaWdoMSIwIAYDVQQKDBlUcmlhbmdsZSBNaWNyb1dvcmtzLCBJbmMuMRAw
DgYDVQQDDAdSb290IENBggkAgQDCMGll9wkwMgYHKoZIzlYIAQQnMCUwIzADAgEC
DAd0ZXN0YW9yAgEBDApJRUM2MjM1MS04CgEBAgEBMAkGByqGSM44BAMDSAAwRQIh
AIr8W/5cUnr16kOe6E31Eb3yVGnoDdklxhJGmM4tpth6AiBmBL7giiZEzAH/LHvQ
NLEdpKd08oRxdtPbUp/hPdjOZw==
-----END CERTIFICATE-----
