Certificate:
    Data:
        Version: 3 (0x2)
        Serial Number: 4 (0x4)
    Signature Algorithm: sha1WithRSAEncryption
        Issuer: C=US, ST=North Carolina, L=Raleigh, O=Triangle MicroWorks, Inc., CN=Root CA
        Validity
            Not Before: May 21 13:52:37 2018 GMT
            Not After : Oct  5 13:52:37 2045 GMT
        Subject: CN=Common, ST=North Carolina, C=US, O=Triangle MicroWorks, Inc.
        Subject Public Key Info:
            Public Key Algorithm: dsaEncryption
                pub: 
                    62:52:dc:78:03:4e:d2:bc:57:57:5c:25:a0:1e:62:
                    b9:ba:29:43:1a:95:4f:40:a2:e1:7f:c0:a0:d7:3a:
                    c4:3c:69:7a:b2:c7:e6:34:95:71:8f:41:7e:0d:9a:
                    50:07:22:c8:01:89:d2:25:ee:b7:fc:e2:d8:42:b7:
                    22:79:11:16:a5:3c:2b:1c:65:01:91:a0:34:f6:b0:
                    27:e4:eb:d6:6b:8d:4e:c3:18:48:ac:f8:4d:e8:85:
                    70:5e:e6:e9:ff:f5:fc:b1:12:13:5f:b4:f2:57:b3:
                    5f:30:5b:c6:63:91:60:dc:2a:1b:c2:b8:9a:aa:d0:
                    a4:70:12:b7:7e:47:b6:5f
                P:   
                    00:92:55:ad:b7:52:7a:fe:70:76:2a:fa:df:8c:49:
                    f1:75:a8:93:3f:24:d9:22:a1:a6:14:55:53:d7:59:
                    67:ab:1d:30:97:f0:f5:e8:13:d9:e1:f1:e7:ce:44:
                    ed:8a:4a:90:22:76:24:11:eb:52:89:da:c2:e3:b8:
                    a4:49:a9:70:d5:f1:1e:4d:a7:57:63:85:04:f2:7c:
                    b4:34:b2:a3:e3:02:6c:ae:34:f7:d5:ca:37:d3:82:
                    28:01:db:ca:8b:7d:9c:de:b7:8b:f6:bf:8a:48:65:
                    5a:06:01:ee:e7:ac:f1:8d:aa:3a:59:12:16:c7:44:
                    00:87:38:d2:91:71:74:3c:a1
                Q:   
                    00:bd:e1:f8:ab:2f:a5:2b:c8:9e:c2:1d:99:b9:f1:
                    2b:05:0a:1f:ec:35
                G:   
                    70:3c:7e:e2:c9:f3:0a:4a:9c:ba:4b:69:4a:15:90:
                    89:3e:f5:89:7c:39:42:23:ae:67:95:52:0a:5f:e4:
                    eb:9b:ec:a6:27:24:2b:c5:2b:04:9d:18:7b:03:2d:
                    3f:50:a6:34:91:b6:ab:3c:da:b2:69:41:d0:71:56:
                    c0:58:ae:fe:02:cb:f5:b1:03:36:57:dc:70:0e:41:
                    00:a7:7c:bc:65:f4:b4:a2:bb:25:69:92:ca:d5:57:
                    e0:76:da:f6:8a:47:ab:7a:2f:59:e9:d1:3c:58:a2:
                    8b:2f:a9:66:af:81:ed:17:d5:8b:69:ea:ac:4e:3a:
                    e9:5b:6a:1c:9b:b0:ad:47
        X509v3 extensions:
            X509v3 Basic Constraints: 
                CA:TRUE
            X509v3 Subject Key Identifier: 
                A6:6D:97:1D:E4:05:D1:E8:A8:24:41:A2:68:5F:B0:7D:F9:08:8A:C2
            X509v3 Authority Key Identifier: 
                keyid:A6:5D:D9:35:6C:04:E8:A4:B7:9D:78:CC:9C:00:0A:A0:03:57:B0:D2
                DirName:/C=US/ST=North Carolina/L=Raleigh/O=Triangle MicroWorks, Inc./CN=Root CA
                serial:C9:E6:FB:5C:C9:AC:6D:06

            1.2.840.10070.8.1: 
                0%0#0......testaor....
IEC62351-8
.....
    Signature Algorithm: sha1WithRSAEncryption
         28:8e:11:f6:1e:4a:a1:8a:e5:6f:59:87:38:de:85:2b:e4:d3:
         90:26:84:8c:d9:25:0c:1c:d7:f2:68:f5:3b:ab:8f:d7:f9:41:
         92:45:5a:41:e7:76:fc:ca:b0:e7:7a:bd:33:eb:b1:04:6a:03:
         d3:b8:b5:b1:62:fe:a4:38:37:1f:df:81:fc:fe:3e:f1:5a:2e:
         82:64:48:ac:3a:40:36:29:31:d1:57:30:1f:cb:34:b4:8d:56:
         40:f6:3c:60:c0:05:c8:51:b9:16:d0:81:21:be:e3:bc:f9:7a:
         08:32:c2:2f:61:f6:26:8e:da:fe:f5:fc:7c:75:97:c1:00:42:
         fe:60
-----BEGIN CERTIFICATE-----
MIIEYTCCA8qgAwIBAgIBBDANBgkqhkiG9w0BAQUFADBuMQswCQYDVQQGEwJVUzEX
MBUGA1UECAwOTm9ydGggQ2Fyb2xpbmExEDAOBgNVBAcMB1JhbGVpZ2gxIjAgBgNV
BAoMGVRyaWFuZ2xlIE1pY3JvV29ya3MsIEluYy4xEDAOBgNVBAMMB1Jvb3QgQ0Ew
HhcNMTgwNTIxMTM1MjM3WhcNNDUxMDA1MTM1MjM3WjBbMQ8wDQYDVQQDDAZDb21t
b24xFzAVBgNVBAgMDk5vcnRoIENhcm9saW5hMQswCQYDVQQGEwJVUzEiMCAGA1UE
CgwZVHJpYW5nbGUgTWljcm9Xb3JrcywgSW5jLjCCAbYwggErBgcqhkjOOAQBMIIB
HgKBgQCSVa23Unr+cHYq+t+MSfF1qJM/JNkioaYUVVPXWWerHTCX8PXoE9nh8efO
RO2KSpAidiQR61KJ2sLjuKRJqXDV8R5Np1djhQTyfLQ0sqPjAmyuNPfVyjfTgigB
28qLfZzet4v2v4pIZVoGAe7nrPGNqjpZEhbHRACHONKRcXQ8oQIVAL3h+KsvpSvI
nsIdmbnxKwUKH+w1AoGAcDx+4snzCkqcuktpShWQiT71iXw5QiOuZ5VSCl/k65vs
pickK8UrBJ0YewMtP1CmNJG2qzzasmlB0HFWwFiu/gLL9bEDNlfccA5BAKd8vGX0
tKK7JWmSytVX4Hba9opHq3ovWenRPFiiiy+pZq+B7RfVi2nqrE466VtqHJuwrUcD
gYQAAoGAYlLceANO0rxXV1wloB5iubopQxqVT0Ci4X/AoNc6xDxperLH5jSVcY9B
fg2aUAciyAGJ0iXut/zi2EK3InkRFqU8KxxlAZGgNPawJ+Tr1muNTsMYSKz4TeiF
cF7m6f/1/LESE1+08lezXzBbxmORYNwqG8K4mqrQpHASt35Htl+jggEIMIIBBDAM
BgNVHRMEBTADAQH/MB0GA1UdDgQWBBSmbZcd5AXR6KgkQaJoX7B9+QiKwjCBoAYD
VR0jBIGYMIGVgBSmXdk1bATopLedeMycAAqgA1ew0qFypHAwbjELMAkGA1UEBhMC
VVMxFzAVBgNVBAgMDk5vcnRoIENhcm9saW5hMRAwDgYDVQQHDAdSYWxlaWdoMSIw
IAYDVQQKDBlUcmlhbmdsZSBNaWNyb1dvcmtzLCBJbmMuMRAwDgYDVQQDDAdSb290
IENBggkAyeb7XMmsbQYwMgYHKoZIzlYIAQQnMCUwIzADAgECDAd0ZXN0YW9yAgEB
DApJRUM2MjM1MS04CgEBAgEBMA0GCSqGSIb3DQEBBQUAA4GBACiOEfYeSqGK5W9Z
hzjehSvk05AmhIzZJQwc1/Jo9Turj9f5QZJFWkHndvzKsOd6vTPrsQRqA9O4tbFi
/qQ4Nx/fgfz+PvFaLoJkSKw6QDYpMdFXMB/LNLSNVkD2PGDABchRuRbQgSG+47z5
eggywi9h9iaO2v71/Hx1l8EAQv5g
-----END CERTIFICATE-----
