Certificate:
    Data:
        Version: 3 (0x2)
        Serial Number: 6 (0x6)
    Signature Algorithm: sha1WithRSAEncryption
        Issuer: C=US, ST=North Carolina, L=Raleigh, O=Triangle MicroWorks, Inc., CN=Root CA
        Validity
            Not Before: May 21 13:52:44 2018 GMT
            Not After : Oct  5 13:52:44 2045 GMT
        Subject: CN=Common, ST=North Carolina, C=US, O=Triangle MicroWorks, Inc.
        Subject Public Key Info:
            Public Key Algorithm: dsaEncryption
                pub: 
                    00:93:0c:d5:d9:db:16:6d:74:4a:25:ff:41:ce:61:
                    8f:53:5b:3f:75:c2:f0:61:24:2b:97:80:99:98:f0:
                    92:e5:15:66:31:3f:6d:51:ff:a5:0e:31:db:1c:3e:
                    9e:ee:20:02:18:f7:d9:57:31:75:bf:88:29:85:bb:
                    15:7e:15:78:2f:07:53:b1:01:51:92:9c:b3:4e:db:
                    4a:23:c7:91:2e:89:9e:21:5b:cb:98:33:41:5f:b5:
                    fe:10:4e:3d:ae:82:b6:6b:24:d7:ae:56:ba:21:7a:
                    bf:7c:4f:d0:e1:13:6b:09:20:bb:1c:ba:8c:61:30:
                    e1:bb:1d:44:b9:1b:58:70:75:16:12:9e:0c:a6:82:
                    51:0c:97:ee:9e:f5:ab:0e:ad:50:9d:a7:15:26:ca:
                    a1:80:01:f6:4d:1c:57:e8:82:38:33:e4:4d:3f:f6:
                    09:13:00:0c:7d:f9:e0:82:ee:81:42:a8:36:7a:f9:
                    c5:81:62:8e:e6:56:3c:d5:57:98:dc:c2:fd:31:d8:
                    43:e3:35:2a:18:ae:b9:f2:42:b7:15:33:40:41:6e:
                    dd:83:97:08:b8:2e:22:26:6b:a6:af:49:6a:9c:fc:
                    41:c7:72:46:25:d5:53:86:80:f0:81:15:6d:ad:59:
                    42:2f:bc:ec:83:0c:65:c9:26:41:1c:7c:af:a1:4c:
                    03:a8:a9:42:b4:88:ff:a3:26:69:c5:8d:9f:65:36:
                    8c:85:81:d2:81:eb:97:12:68:d3:c9:38:dc:74:bb:
                    ed:e9:a5:d5:a0:85:2d:bc:7b:02:ec:78:dd:ed:f6:
                    20:8e:7a:bf:f6:aa:b5:c3:f7:b9:b6:27:22:02:06:
                    f6:58:f7:9e:ce:c6:46:1f:9f:b7:b7:c3:4e:12:b5:
                    6f:fb:67:26:d1:40:f1:eb:03:bc:d8:e4:77:6d:13:
                    35:87:7d:f7:b6:2b:4c:b6:d9:91:c3:43:a6:bd:33:
                    3b:98:4d:47:e2:6b:d3:45:1c:17:a4:b6:74:8e:ea:
                    b9:ec:ab:9a:a7:6d:74:87:9b:ca
                P:   
                    00:c2:0c:77:3f:c6:f1:a1:08:1a:9f:28:bd:aa:7e:
                    07:93:f3:eb:28:38:fc:f8:59:a8:7a:8b:3b:d7:c0:
                    01:69:30:ed:12:5b:50:72:07:44:87:cb:88:33:cc:
                    8f:cb:1b:c9:eb:3f:c6:f0:d4:1b:df:9e:e8:d1:11:
                    b7:36:c6:62:ab:87:08:7a:8f:98:b4:e1:ec:08:7e:
                    69:92:0b:af:cf:99:30:1f:90:9c:26:17:2a:d6:ee:
                    a6:60:bc:d5:68:e4:cb:4d:5f:9d:70:32:10:a2:cb:
                    47:18:16:c4:41:e7:d5:f1:91:7f:56:6b:64:37:7d:
                    ae:8d:3d:da:2e:23:99:cf:a5:92:e1:f4:4a:28:76:
                    61:98:2c:fa:4f:b3:a0:ce:0a:18:d9:a6:d2:11:81:
                    70:13:ed:72:77:a6:1c:cf:90:a7:91:9b:95:53:2f:
                    f6:8e:9d:73:f2:6a:5a:e0:6d:fd:d3:2b:2c:ff:cf:
                    75:49:bc:98:97:1d:c4:cf:7d:72:41:11:8c:72:ea:
                    6a:94:1f:9e:53:15:01:29:43:ba:5e:9a:5e:2a:2a:
                    b7:1c:44:71:d5:bd:9d:4b:1a:59:82:8c:6e:ae:ac:
                    82:fb:2e:df:1a:d8:7d:7b:cc:2a:51:68:6f:0c:11:
                    f8:c7:49:6b:10:39:31:25:cc:ef:ce:91:b9:d6:17:
                    b7:42:00:4b:a8:d9:0c:3b:f7:fb:ed:bb:84:65:29:
                    3d:27:97:1f:6c:26:5d:d1:29:5b:3f:20:d9:a9:05:
                    36:4d:88:64:3a:3d:33:f3:6c:66:82:50:44:bb:c6:
                    8c:78:89:1e:33:8d:1e:0e:5e:a6:93:60:db:87:7b:
                    1c:d0:fc:a6:0f:48:b1:74:3f:7f:36:3f:ed:80:2d:
                    44:43:79:36:31:c5:07:de:f1:bc:15:22:b6:eb:d4:
                    34:ed:c5:61:ba:fa:be:b7:dc:66:ee:96:09:bb:ac:
                    89:ad:a3:21:92:e9:b4:8b:cb:dd:89:e4:46:3c:1a:
                    c2:95:e5:09:07:e7:c3:8a:f1:15
                Q:   
                    00:c9:43:67:7b:f6:04:54:d9:3e:56:75:ec:f6:94:
                    ac:cc:d9:b0:08:04:f9:95:97:4e:d9:fb:d9:54:2b:
                    67:aa:d1
                G:   
                    00:a3:c9:fc:28:3c:bf:8b:48:77:2c:91:40:48:8f:
                    dd:76:62:62:e2:01:54:1d:4e:6b:1c:0c:83:95:50:
                    1b:1d:54:d2:f4:ca:0c:3a:4a:e6:82:4d:54:a1:9b:
                    76:34:28:5f:5d:a6:6d:3e:61:65:73:bb:5c:b9:ef:
                    6d:04:63:a0:40:00:5c:40:a7:5b:90:b1:5a:f9:4a:
                    2a:4c:77:29:e9:c8:8f:af:ee:a3:f9:ac:72:18:f3:
                    87:2c:c0:c8:06:8c:a1:85:b6:6a:22:0f:8f:f8:b4:
                    b2:04:4a:00:79:6e:e3:95:7e:fa:4b:b6:eb:81:e9:
                    9a:93:35:01:06:d3:8a:fa:b9:fd:d7:0f:5f:a3:61:
                    6e:d8:54:40:e4:ac:13:56:66:10:af:00:1b:2e:85:
                    da:e5:9d:54:4f:09:88:dd:f0:81:6c:b2:87:7f:06:
                    9b:fd:a9:45:f2:b3:78:42:5b:52:62:cf:26:12:70:
                    3c:f7:b7:53:cf:e1:db:8a:66:9d:a5:53:61:46:34:
                    87:cd:95:3b:f3:6d:f7:4f:3f:9e:b2:fe:ac:71:3d:
                    c9:e1:be:d9:cf:07:cc:5e:c1:b1:37:6c:46:a5:36:
                    2c:f1:45:9b:50:59:7f:7a:e0:cd:c6:d7:5a:90:70:
                    0c:75:b2:38:3a:76:ad:56:84:1a:84:05:08:f8:d6:
                    a4:5d:56:b4:31:5a:9b:a9:b1:ed:44:ed:7c:e4:e1:
                    b4:b6:97:58:c7:b3:73:21:ea:5f:05:d3:df:6e:1d:
                    aa:f4:16:2b:40:20:39:d2:36:18:8e:01:d5:53:f1:
                    58:68:86:32:44:90:f9:0f:3b:e4:a4:a3:12:dc:f7:
                    65:6f:ee:a8:7f:1f:3f:21:3e:9c:da:c2:e1:cf:b8:
                    19:b3:46:b1:58:e6:84:2c:f2:e8:25:f0:32:b2:35:
                    43:12:b3:8e:0f:c2:8f:70:38:77:24:cd:a0:88:f8:
                    5e:e1:98:3c:19:9b:0c:88:17:2d:b9:9b:9e:46:ca:
                    35:92:17:eb:7b:e3:4d:8c:28:29
        X509v3 extensions:
            X509v3 Basic Constraints: 
                CA:TRUE
            X509v3 Subject Key Identifier: 
                CC:20:78:42:AC:4E:33:81:E2:E1:4A:96:12:06:6F:39:38:E5:0D:9E
            X509v3 Authority Key Identifier: 
                keyid:82:CC:4A:2A:A1:69:42:24:B7:2F:AC:35:01:65:AC:73:C2:7C:3F:19
                DirName:/C=US/ST=North Carolina/L=Raleigh/O=Triangle MicroWorks, Inc./CN=Root CA
                serial:AF:24:95:EA:0D:27:1B:DE

            1.2.840.10070.8.1: 
                0%0#0......testaor....
IEC62351-8
.....
    Signature Algorithm: sha1WithRSAEncryption
         bc:c0:c2:0b:d8:55:a8:6a:cd:5c:d6:4d:21:63:33:a6:f6:24:
         ff:cc:c4:4c:56:81:bd:ad:2c:a1:f7:3f:13:23:4a:7c:61:42:
         93:c6:27:03:3e:c2:d8:ac:09:67:ef:84:7f:57:6b:1e:38:a0:
         46:5c:c9:7a:29:10:c1:02:17:86:ca:c8:a0:d5:0d:e0:1e:e7:
         c8:e6:ec:57:12:e4:2a:6b:84:f0:2a:27:fd:a1:a2:77:fe:56:
         80:42:45:d0:54:55:1e:e0:15:59:9e:c4:a0:d8:9b:b0:ad:41:
         67:80:fe:80:f2:01:cd:92:25:2f:8a:ee:1a:e9:e3:ce:dd:03:
         f5:d2:79:42:8b:03:6e:81:ce:e7:1f:b8:73:1c:1a:76:80:d0:
         34:ba:b2:86:68:e5:59:00:52:96:53:a0:af:4b:8b:91:cc:b8:
         64:f1:f4:93:c2:bc:5e:42:c2:92:b9:61:f8:ca:06:ea:1c:7c:
         44:05:38:c0:5b:54:67:37:48:b7:b4:18:78:e1:94:dd:14:69:
         74:78:06:20:68:26:29:5a:fa:68:6c:6f:d6:c9:df:61:82:98:
         e5:e6:98:8f:90:17:2c:62:08:1a:c4:22:ab:2d:db:2f:13:fe:
         0b:82:33:64:cc:83:bf:83:a7:cc:2b:d6:61:47:a9:a5:48:e3:
         0d:7d:8e:e1:f3:eb:92:ae:02:74:d8:29:63:70:ff:99:f2:50:
         4b:27:61:aa:00:4d:d9:67:60:8e:1f:d2:7f:8f:b2:83:cf:b8:
         af:33:4c:f3:79:b6:8d:63:f3:f1:9a:e4:9f:81:c8:cc:dd:76:
         4e:64:4a:bb:1a:52:51:06:86:a8:ce:40:71:d5:df:4f:0d:3b:
         b1:6a:e2:68:7a:20:11:03:81:4f:6a:ef:d9:75:da:74:c0:68:
         55:62:37:52:b7:4d:a8:e7:7b:a9:72:29:6a:d8:52:8e:5e:33:
         be:ea:56:2f:38:df:9c:bc:51:34:50:d7:96:c2:ee:7e:b2:ae:
         0d:2f:7b:90:a2:e5
-----BEGIN CERTIFICATE-----
MIIIdDCCBtygAwIBAgIBBjANBgkqhkiG9w0BAQUFADBuMQswCQYDVQQGEwJVUzEX
MBUGA1UECAwOTm9ydGggQ2Fyb2xpbmExEDAOBgNVBAcMB1JhbGVpZ2gxIjAgBgNV
BAoMGVRyaWFuZ2xlIE1pY3JvV29ya3MsIEluYy4xEDAOBgNVBAMMB1Jvb3QgQ0Ew
HhcNMTgwNTIxMTM1MjQ0WhcNNDUxMDA1MTM1MjQ0WjBbMQ8wDQYDVQQDDAZDb21t
b24xFzAVBgNVBAgMDk5vcnRoIENhcm9saW5hMQswCQYDVQQGEwJVUzEiMCAGA1UE
CgwZVHJpYW5nbGUgTWljcm9Xb3JrcywgSW5jLjCCBMgwggM6BgcqhkjOOAQBMIID
LQKCAYEAwgx3P8bxoQganyi9qn4Hk/PrKDj8+Fmoeos718ABaTDtEltQcgdEh8uI
M8yPyxvJ6z/G8NQb357o0RG3NsZiq4cIeo+YtOHsCH5pkguvz5kwH5CcJhcq1u6m
YLzVaOTLTV+dcDIQostHGBbEQefV8ZF/VmtkN32ujT3aLiOZz6WS4fRKKHZhmCz6
T7OgzgoY2abSEYFwE+1yd6Ycz5CnkZuVUy/2jp1z8mpa4G390yss/891SbyYlx3E
z31yQRGMcupqlB+eUxUBKUO6XppeKiq3HERx1b2dSxpZgoxurqyC+y7fGth9e8wq
UWhvDBH4x0lrEDkxJczvzpG51he3QgBLqNkMO/f77buEZSk9J5cfbCZd0SlbPyDZ
qQU2TYhkOj0z82xmglBEu8aMeIkeM40eDl6mk2Dbh3sc0PymD0ixdD9/Nj/tgC1E
Q3k2McUH3vG8FSK269Q07cVhuvq+t9xm7pYJu6yJraMhkum0i8vdieRGPBrCleUJ
B+fDivEVAiEAyUNne/YEVNk+VnXs9pSszNmwCAT5lZdO2fvZVCtnqtECggGBAKPJ
/Cg8v4tIdyyRQEiP3XZiYuIBVB1OaxwMg5VQGx1U0vTKDDpK5oJNVKGbdjQoX12m
bT5hZXO7XLnvbQRjoEAAXECnW5CxWvlKKkx3KenIj6/uo/mschjzhyzAyAaMoYW2
aiIPj/i0sgRKAHlu45V++ku264HpmpM1AQbTivq5/dcPX6NhbthUQOSsE1ZmEK8A
Gy6F2uWdVE8JiN3wgWyyh38Gm/2pRfKzeEJbUmLPJhJwPPe3U8/h24pmnaVTYUY0
h82VO/Nt908/nrL+rHE9yeG+2c8HzF7BsTdsRqU2LPFFm1BZf3rgzcbXWpBwDHWy
ODp2rVaEGoQFCPjWpF1WtDFam6mx7UTtfOThtLaXWMezcyHqXwXT324dqvQWK0Ag
OdI2GI4B1VPxWGiGMkSQ+Q875KSjEtz3ZW/uqH8fPyE+nNrC4c+4GbNGsVjmhCzy
6CXwMrI1QxKzjg/Cj3A4dyTNoIj4XuGYPBmbDIgXLbmbnkbKNZIX63vjTYwoKQOC
AYYAAoIBgQCTDNXZ2xZtdEol/0HOYY9TWz91wvBhJCuXgJmY8JLlFWYxP21R/6UO
MdscPp7uIAIY99lXMXW/iCmFuxV+FXgvB1OxAVGSnLNO20ojx5EuiZ4hW8uYM0Ff
tf4QTj2ugrZrJNeuVroher98T9DhE2sJILscuoxhMOG7HUS5G1hwdRYSngymglEM
l+6e9asOrVCdpxUmyqGAAfZNHFfogjgz5E0/9gkTAAx9+eCC7oFCqDZ6+cWBYo7m
VjzVV5jcwv0x2EPjNSoYrrnyQrcVM0BBbt2Dlwi4LiIma6avSWqc/EHHckYl1VOG
gPCBFW2tWUIvvOyDDGXJJkEcfK+hTAOoqUK0iP+jJmnFjZ9lNoyFgdKB65cSaNPJ
ONx0u+3ppdWghS28ewLseN3t9iCOer/2qrXD97m2JyICBvZY957OxkYfn7e3w04S
tW/7ZybRQPHrA7zY5HdtEzWHffe2K0y22ZHDQ6a9MzuYTUfia9NFHBektnSO6rns
q5qnbXSHm8qjggEIMIIBBDAMBgNVHRMEBTADAQH/MB0GA1UdDgQWBBTMIHhCrE4z
geLhSpYSBm85OOUNnjCBoAYDVR0jBIGYMIGVgBSCzEoqoWlCJLcvrDUBZaxzwnw/
GaFypHAwbjELMAkGA1UEBhMCVVMxFzAVBgNVBAgMDk5vcnRoIENhcm9saW5hMRAw
DgYDVQQHDAdSYWxlaWdoMSIwIAYDVQQKDBlUcmlhbmdsZSBNaWNyb1dvcmtzLCBJ
bmMuMRAwDgYDVQQDDAdSb290IENBggkArySV6g0nG94wMgYHKoZIzlYIAQQnMCUw
IzADAgECDAd0ZXN0YW9yAgEBDApJRUM2MjM1MS04CgEBAgEBMA0GCSqGSIb3DQEB
BQUAA4IBgQC8wMIL2FWoas1c1k0hYzOm9iT/zMRMVoG9rSyh9z8TI0p8YUKTxicD
PsLYrAln74R/V2seOKBGXMl6KRDBAheGysig1Q3gHufI5uxXEuQqa4TwKif9oaJ3
/laAQkXQVFUe4BVZnsSg2JuwrUFngP6A8gHNkiUviu4a6ePO3QP10nlCiwNugc7n
H7hzHBp2gNA0urKGaOVZAFKWU6CvS4uRzLhk8fSTwrxeQsKSuWH4ygbqHHxEBTjA
W1RnN0i3tBh44ZTdFGl0eAYgaCYpWvpobG/Wyd9hgpjl5piPkBcsYggaxCKrLdsv
E/4LgjNkzIO/g6fMK9ZhR6mlSOMNfY7h8+uSrgJ02CljcP+Z8lBLJ2GqAE3ZZ2CO
H9J/j7KDz7ivM0zzebaNY/PxmuSfgcjM3XZOZEq7GlJRBoaozkBx1d9PDTuxauJo
eiARA4FPau/Zddp0wGhVYjdSt02o53upcilq2FKOXjO+6lYvON+cvFE0UNeWwu5+
sq4NL3uQouU=
-----END CERTIFICATE-----
