Certificate:
    Data:
        Version: 3 (0x2)
        Serial Number: 3 (0x3)
    Signature Algorithm: dsaWithSHA1
        Issuer: C=US, ST=North Carolina, L=Raleigh, O=Triangle MicroWorks, Inc., CN=Root CA
        Validity
            Not Before: May 21 13:52:31 2018 GMT
            Not After : Oct  5 13:52:31 2045 GMT
        Subject: CN=Common, ST=North Carolina, C=US, O=Triangle MicroWorks, Inc.
        Subject Public Key Info:
            Public Key Algorithm: dsaEncryption
                pub: 
                    00:93:0c:d5:d9:db:16:6d:74:4a:25:ff:41:ce:61:
                    8f:53:5b:3f:75:c2:f0:61:24:2b:97:80:99:98:f0:
                    92:e5:15:66:31:3f:6d:51:ff:a5:0e:31:db:1c:3e:
                    9e:ee:20:02:18:f7:d9:57:31:75:bf:88:29:85:bb:
                    15:7e:15:78:2f:07:53:b1:01:51:92:9c:b3:4e:db:
                    4a:23:c7:91:2e:89:9e:21:5b:cb:98:33:41:5f:b5:
                    fe:10:4e:3d:ae:82:b6:6b:24:d7:ae:56:ba:21:7a:
                    bf:7c:4f:d0:e1:13:6b:09:20:bb:1c:ba:8c:61:30:
                    e1:bb:1d:44:b9:1b:58:70:75:16:12:9e:0c:a6:82:
                    51:0c:97:ee:9e:f5:ab:0e:ad:50:9d:a7:15:26:ca:
                    a1:80:01:f6:4d:1c:57:e8:82:38:33:e4:4d:3f:f6:
                    09:13:00:0c:7d:f9:e0:82:ee:81:42:a8:36:7a:f9:
                    c5:81:62:8e:e6:56:3c:d5:57:98:dc:c2:fd:31:d8:
                    43:e3:35:2a:18:ae:b9:f2:42:b7:15:33:40:41:6e:
                    dd:83:97:08:b8:2e:22:26:6b:a6:af:49:6a:9c:fc:
                    41:c7:72:46:25:d5:53:86:80:f0:81:15:6d:ad:59:
                    42:2f:bc:ec:83:0c:65:c9:26:41:1c:7c:af:a1:4c:
                    03:a8:a9:42:b4:88:ff:a3:26:69:c5:8d:9f:65:36:
                    8c:85:81:d2:81:eb:97:12:68:d3:c9:38:dc:74:bb:
                    ed:e9:a5:d5:a0:85:2d:bc:7b:02:ec:78:dd:ed:f6:
                    20:8e:7a:bf:f6:aa:b5:c3:f7:b9:b6:27:22:02:06:
                    f6:58:f7:9e:ce:c6:46:1f:9f:b7:b7:c3:4e:12:b5:
                    6f:fb:67:26:d1:40:f1:eb:03:bc:d8:e4:77:6d:13:
                    35:87:7d:f7:b6:2b:4c:b6:d9:91:c3:43:a6:bd:33:
                    3b:98:4d:47:e2:6b:d3:45:1c:17:a4:b6:74:8e:ea:
                    b9:ec:ab:9a:a7:6d:74:87:9b:ca
                P:   
                    00:c2:0c:77:3f:c6:f1:a1:08:1a:9f:28:bd:aa:7e:
                    07:93:f3:eb:28:38:fc:f8:59:a8:7a:8b:3b:d7:c0:
                    01:69:30:ed:12:5b:50:72:07:44:87:cb:88:33:cc:
                    8f:cb:1b:c9:eb:3f:c6:f0:d4:1b:df:9e:e8:d1:11:
                    b7:36:c6:62:ab:87:08:7a:8f:98:b4:e1:ec:08:7e:
                    69:92:0b:af:cf:99:30:1f:90:9c:26:17:2a:d6:ee:
                    a6:60:bc:d5:68:e4:cb:4d:5f:9d:70:32:10:a2:cb:
                    47:18:16:c4:41:e7:d5:f1:91:7f:56:6b:64:37:7d:
                    ae:8d:3d:da:2e:23:99:cf:a5:92:e1:f4:4a:28:76:
                    61:98:2c:fa:4f:b3:a0:ce:0a:18:d9:a6:d2:11:81:
                    70:13:ed:72:77:a6:1c:cf:90:a7:91:9b:95:53:2f:
                    f6:8e:9d:73:f2:6a:5a:e0:6d:fd:d3:2b:2c:ff:cf:
                    75:49:bc:98:97:1d:c4:cf:7d:72:41:11:8c:72:ea:
                    6a:94:1f:9e:53:15:01:29:43:ba:5e:9a:5e:2a:2a:
                    b7:1c:44:71:d5:bd:9d:4b:1a:59:82:8c:6e:ae:ac:
                    82:fb:2e:df:1a:d8:7d:7b:cc:2a:51:68:6f:0c:11:
                    f8:c7:49:6b:10:39:31:25:cc:ef:ce:91:b9:d6:17:
                    b7:42:00:4b:a8:d9:0c:3b:f7:fb:ed:bb:84:65:29:
                    3d:27:97:1f:6c:26:5d:d1:29:5b:3f:20:d9:a9:05:
                    36:4d:88:64:3a:3d:33:f3:6c:66:82:50:44:bb:c6:
                    8c:78:89:1e:33:8d:1e:0e:5e:a6:93:60:db:87:7b:
                    1c:d0:fc:a6:0f:48:b1:74:3f:7f:36:3f:ed:80:2d:
                    44:43:79:36:31:c5:07:de:f1:bc:15:22:b6:eb:d4:
                    34:ed:c5:61:ba:fa:be:b7:dc:66:ee:96:09:bb:ac:
                    89:ad:a3:21:92:e9:b4:8b:cb:dd:89:e4:46:3c:1a:
                    c2:95:e5:09:07:e7:c3:8a:f1:15
                Q:   
                    00:c9:43:67:7b:f6:04:54:d9:3e:56:75:ec:f6:94:
                    ac:cc:d9:b0:08:04:f9:95:97:4e:d9:fb:d9:54:2b:
                    67:aa:d1
                G:   
                    00:a3:c9:fc:28:3c:bf:8b:48:77:2c:91:40:48:8f:
                    dd:76:62:62:e2:01:54:1d:4e:6b:1c:0c:83:95:50:
                    1b:1d:54:d2:f4:ca:0c:3a:4a:e6:82:4d:54:a1:9b:
                    76:34:28:5f:5d:a6:6d:3e:61:65:73:bb:5c:b9:ef:
                    6d:04:63:a0:40:00:5c:40:a7:5b:90:b1:5a:f9:4a:
                    2a:4c:77:29:e9:c8:8f:af:ee:a3:f9:ac:72:18:f3:
                    87:2c:c0:c8:06:8c:a1:85:b6:6a:22:0f:8f:f8:b4:
                    b2:04:4a:00:79:6e:e3:95:7e:fa:4b:b6:eb:81:e9:
                    9a:93:35:01:06:d3:8a:fa:b9:fd:d7:0f:5f:a3:61:
                    6e:d8:54:40:e4:ac:13:56:66:10:af:00:1b:2e:85:
                    da:e5:9d:54:4f:09:88:dd:f0:81:6c:b2:87:7f:06:
                    9b:fd:a9:45:f2:b3:78:42:5b:52:62:cf:26:12:70:
                    3c:f7:b7:53:cf:e1:db:8a:66:9d:a5:53:61:46:34:
                    87:cd:95:3b:f3:6d:f7:4f:3f:9e:b2:fe:ac:71:3d:
                    c9:e1:be:d9:cf:07:cc:5e:c1:b1:37:6c:46:a5:36:
                    2c:f1:45:9b:50:59:7f:7a:e0:cd:c6:d7:5a:90:70:
                    0c:75:b2:38:3a:76:ad:56:84:1a:84:05:08:f8:d6:
                    a4:5d:56:b4:31:5a:9b:a9:b1:ed:44:ed:7c:e4:e1:
                    b4:b6:97:58:c7:b3:73:21:ea:5f:05:d3:df:6e:1d:
                    aa:f4:16:2b:40:20:39:d2:36:18:8e:01:d5:53:f1:
                    58:68:86:32:44:90:f9:0f:3b:e4:a4:a3:12:dc:f7:
                    65:6f:ee:a8:7f:1f:3f:21:3e:9c:da:c2:e1:cf:b8:
                    19:b3:46:b1:58:e6:84:2c:f2:e8:25:f0:32:b2:35:
                    43:12:b3:8e:0f:c2:8f:70:38:77:24:cd:a0:88:f8:
                    5e:e1:98:3c:19:9b:0c:88:17:2d:b9:9b:9e:46:ca:
                    35:92:17:eb:7b:e3:4d:8c:28:29
        X509v3 extensions:
            X509v3 Basic Constraints: 
                CA:TRUE
            X509v3 Subject Key Identifier: 
                CC:20:78:42:AC:4E:33:81:E2:E1:4A:96:12:06:6F:39:38:E5:0D:9E
            X509v3 Authority Key Identifier: 
                keyid:7B:22:6B:E3:93:66:84:17:9E:54:29:F6:89:1E:EE:E9:33:E8:03:E6
                DirName:/C=US/ST=North Carolina/L=Raleigh/O=Triangle MicroWorks, Inc./CN=Root CA
                serial:D9:D6:B2:92:28:AC:34:90

            1.2.840.10070.8.1: 
                0%0#0......testaor....
IEC62351-8
.....
    Signature Algorithm: dsaWithSHA1
         r:   
             41:18:cb:07:1f:60:fc:f5:17:d5:94:57:a0:89:42:
             48:94:84:fd:fa:7e:c6:a6:32:63:de:85:51:b9:90:
             15:22
         s:   
             00:9d:06:f2:b3:b6:ff:f7:b7:ed:7d:c6:e7:be:95:
             f8:7e:bf:e4:8e:6d:94:c2:7d:d6:9b:c6:77:f0:62:
             bd:41:da
-----BEGIN CERTIFICATE-----
MIIHMTCCBtigAwIBAgIBAzAJBgcqhkjOOAQDMG4xCzAJBgNVBAYTAlVTMRcwFQYD
VQQIDA5Ob3J0aCBDYXJvbGluYTEQMA4GA1UEBwwHUmFsZWlnaDEiMCAGA1UECgwZ
VHJpYW5nbGUgTWljcm9Xb3JrcywgSW5jLjEQMA4GA1UEAwwHUm9vdCBDQTAeFw0x
ODA1MjExMzUyMzFaFw00NTEwMDUxMzUyMzFaMFsxDzANBgNVBAMMBkNvbW1vbjEX
MBUGA1UECAwOTm9ydGggQ2Fyb2xpbmExCzAJBgNVBAYTAlVTMSIwIAYDVQQKDBlU
cmlhbmdsZSBNaWNyb1dvcmtzLCBJbmMuMIIEyDCCAzoGByqGSM44BAEwggMtAoIB
gQDCDHc/xvGhCBqfKL2qfgeT8+soOPz4Wah6izvXwAFpMO0SW1ByB0SHy4gzzI/L
G8nrP8bw1BvfnujREbc2xmKrhwh6j5i04ewIfmmSC6/PmTAfkJwmFyrW7qZgvNVo
5MtNX51wMhCiy0cYFsRB59XxkX9Wa2Q3fa6NPdouI5nPpZLh9EoodmGYLPpPs6DO
ChjZptIRgXAT7XJ3phzPkKeRm5VTL/aOnXPyalrgbf3TKyz/z3VJvJiXHcTPfXJB
EYxy6mqUH55TFQEpQ7peml4qKrccRHHVvZ1LGlmCjG6urIL7Lt8a2H17zCpRaG8M
EfjHSWsQOTElzO/OkbnWF7dCAEuo2Qw79/vtu4RlKT0nlx9sJl3RKVs/INmpBTZN
iGQ6PTPzbGaCUES7xox4iR4zjR4OXqaTYNuHexzQ/KYPSLF0P382P+2ALURDeTYx
xQfe8bwVIrbr1DTtxWG6+r633Gbulgm7rImtoyGS6bSLy92J5EY8GsKV5QkH58OK
8RUCIQDJQ2d79gRU2T5Wdez2lKzM2bAIBPmVl07Z+9lUK2eq0QKCAYEAo8n8KDy/
i0h3LJFASI/ddmJi4gFUHU5rHAyDlVAbHVTS9MoMOkrmgk1UoZt2NChfXaZtPmFl
c7tcue9tBGOgQABcQKdbkLFa+UoqTHcp6ciPr+6j+axyGPOHLMDIBoyhhbZqIg+P
+LSyBEoAeW7jlX76S7brgemakzUBBtOK+rn91w9fo2Fu2FRA5KwTVmYQrwAbLoXa
5Z1UTwmI3fCBbLKHfwab/alF8rN4QltSYs8mEnA897dTz+HbimadpVNhRjSHzZU7
8233Tz+esv6scT3J4b7ZzwfMXsGxN2xGpTYs8UWbUFl/euDNxtdakHAMdbI4Onat
VoQahAUI+NakXVa0MVqbqbHtRO185OG0tpdYx7NzIepfBdPfbh2q9BYrQCA50jYY
jgHVU/FYaIYyRJD5DzvkpKMS3Pdlb+6ofx8/IT6c2sLhz7gZs0axWOaELPLoJfAy
sjVDErOOD8KPcDh3JM2giPhe4Zg8GZsMiBctuZueRso1khfre+NNjCgpA4IBhgAC
ggGBAJMM1dnbFm10SiX/Qc5hj1NbP3XC8GEkK5eAmZjwkuUVZjE/bVH/pQ4x2xw+
nu4gAhj32Vcxdb+IKYW7FX4VeC8HU7EBUZKcs07bSiPHkS6JniFby5gzQV+1/hBO
Pa6Ctmsk165WuiF6v3xP0OETawkguxy6jGEw4bsdRLkbWHB1FhKeDKaCUQyX7p71
qw6tUJ2nFSbKoYAB9k0cV+iCODPkTT/2CRMADH354ILugUKoNnr5xYFijuZWPNVX
mNzC/THYQ+M1KhiuufJCtxUzQEFu3YOXCLguIiZrpq9Japz8QcdyRiXVU4aA8IEV
ba1ZQi+87IMMZckmQRx8r6FMA6ipQrSI/6MmacWNn2U2jIWB0oHrlxJo08k43HS7
7eml1aCFLbx7Aux43e32II56v/aqtcP3ubYnIgIG9lj3ns7GRh+ft7fDThK1b/tn
JtFA8esDvNjkd20TNYd997YrTLbZkcNDpr0zO5hNR+Jr00UcF6S2dI7queyrmqdt
dIebyqOCAQgwggEEMAwGA1UdEwQFMAMBAf8wHQYDVR0OBBYEFMwgeEKsTjOB4uFK
lhIGbzk45Q2eMIGgBgNVHSMEgZgwgZWAFHsia+OTZoQXnlQp9oke7ukz6APmoXKk
cDBuMQswCQYDVQQGEwJVUzEXMBUGA1UECAwOTm9ydGggQ2Fyb2xpbmExEDAOBgNV
BAcMB1JhbGVpZ2gxIjAgBgNVBAoMGVRyaWFuZ2xlIE1pY3JvV29ya3MsIEluYy4x
EDAOBgNVBAMMB1Jvb3QgQ0GCCQDZ1rKSKKw0kDAyBgcqhkjOVggBBCcwJTAjMAMC
AQIMB3Rlc3Rhb3ICAQEMCklFQzYyMzUxLTgKAQECAQEwCQYHKoZIzjgEAwNIADBF
AiBBGMsHH2D89RfVlFegiUJIlIT9+n7GpjJj3oVRuZAVIgIhAJ0G8rO2//e37X3G
576V+H6/5I5tlMJ91pvGd/BivUHa
-----END CERTIFICATE-----
