Certificate:
    Data:
        Version: 3 (0x2)
        Serial Number: 5 (0x5)
    Signature Algorithm: sha1WithRSAEncryption
        Issuer: C=US, ST=North Carolina, L=Raleigh, O=Triangle MicroWorks, Inc., CN=Root CA
        Validity
            Not Before: Feb  1 18:45:37 2013 GMT
            Not After : Jun 18 18:45:37 2040 GMT
        Subject: CN=TLS, ST=North Carolina, C=US, O=Triangle MicroWorks, Inc.
        Subject Public Key Info:
            Public Key Algorithm: rsaEncryption
                Public-Key: (1024 bit)
                Modulus:
                    00:b2:9a:e0:b7:c5:60:89:fb:79:a6:36:9f:b7:bc:
                    f4:39:66:5c:7f:51:e4:89:d7:b9:9f:fe:1f:e0:dc:
                    8f:ef:4d:54:97:66:b6:be:2b:23:ac:87:bc:42:6e:
                    a6:6d:8f:08:5e:3a:ec:b3:34:a1:7d:23:32:59:33:
                    6d:8a:4f:5b:34:c9:40:2a:41:60:a5:7b:2d:db:0f:
                    72:66:10:57:cb:22:38:b2:24:23:00:31:89:13:94:
                    d8:fc:46:d3:40:0b:4c:d0:25:cb:5a:6c:32:0b:50:
                    73:c1:f7:f2:d6:0a:87:d7:fb:11:1f:cb:5d:3b:dc:
                    53:e8:8b:96:3d:96:29:bc:39
                Exponent: 65537 (0x10001)
        X509v3 extensions:
            X509v3 Basic Constraints: 
                CA:TRUE
            X509v3 Subject Key Identifier: 
                61:0A:B1:C7:8A:BE:68:1B:07:A9:AF:28:12:25:87:6F:7D:1C:B8:E4
            X509v3 Authority Key Identifier: 
                keyid:4F:C5:5D:E6:06:62:6B:00:EF:9A:FF:B4:58:C8:3C:46:90:FA:E3:B8
                DirName:/C=US/ST=North Carolina/L=Raleigh/O=Triangle MicroWorks, Inc./CN=Root CA
                serial:D8:69:AF:FB:79:0C:EF:7F

    Signature Algorithm: sha1WithRSAEncryption
         7c:09:e5:34:7d:99:b4:71:a3:69:53:50:32:e1:cc:04:8f:81:
         4e:21:f6:8e:15:42:38:14:59:91:d8:b0:5c:d9:38:08:d9:34:
         03:e8:3c:4f:26:c8:fa:ad:92:76:71:59:4c:ad:e9:ab:38:4d:
         79:17:79:5a:6e:b2:42:9a:48:7c:b6:2b:13:eb:4f:a7:c6:5d:
         02:9d:ba:c6:54:f5:e1:93:42:e4:43:81:68:71:56:dd:9a:78:
         c4:36:89:69:82:79:a8:13:f8:84:54:a9:57:61:87:71:d1:76:
         e8:1a:9d:f4:c5:b8:f8:d9:65:1a:27:a8:d6:07:2c:5b:45:57:
         1d:1a
-----BEGIN CERTIFICATE-----
MIIDEDCCAnmgAwIBAgIBBTANBgkqhkiG9w0BAQUFADBuMQswCQYDVQQGEwJVUzEX
MBUGA1UECBMOTm9ydGggQ2Fyb2xpbmExEDAOBgNVBAcTB1JhbGVpZ2gxIjAgBgNV
BAoTGVRyaWFuZ2xlIE1pY3JvV29ya3MsIEluYy4xEDAOBgNVBAMTB1Jvb3QgQ0Ew
HhcNMTMwMjAxMTg0NTM3WhcNNDAwNjE4MTg0NTM3WjBYMQwwCgYDVQQDEwNUTFMx
FzAVBgNVBAgTDk5vcnRoIENhcm9saW5hMQswCQYDVQQGEwJVUzEiMCAGA1UEChMZ
VHJpYW5nbGUgTWljcm9Xb3JrcywgSW5jLjCBnzANBgkqhkiG9w0BAQEFAAOBjQAw
gYkCgYEAsprgt8Vgift5pjaft7z0OWZcf1Hkide5n/4f4NyP701Ul2a2visjrIe8
Qm6mbY8IXjrsszShfSMyWTNtik9bNMlAKkFgpXst2w9yZhBXyyI4siQjADGJE5TY
/EbTQAtM0CXLWmwyC1Bzwffy1gqH1/sRH8tdO9xT6IuWPZYpvDkCAwEAAaOB0zCB
0DAMBgNVHRMEBTADAQH/MB0GA1UdDgQWBBRhCrHHir5oGweprygSJYdvfRy45DCB
oAYDVR0jBIGYMIGVgBRPxV3mBmJrAO+a/7RYyDxGkPrjuKFypHAwbjELMAkGA1UE
BhMCVVMxFzAVBgNVBAgTDk5vcnRoIENhcm9saW5hMRAwDgYDVQQHEwdSYWxlaWdo
MSIwIAYDVQQKExlUcmlhbmdsZSBNaWNyb1dvcmtzLCBJbmMuMRAwDgYDVQQDEwdS
b290IENBggkA2Gmv+3kM738wDQYJKoZIhvcNAQEFBQADgYEAfAnlNH2ZtHGjaVNQ
MuHMBI+BTiH2jhVCOBRZkdiwXNk4CNk0A+g8TybI+q2SdnFZTK3pqzhNeRd5Wm6y
QppIfLYrE+tPp8ZdAp26xlT14ZNC5EOBaHFW3Zp4xDaJaYJ5qBP4hFSpV2GHcdF2
6Bqd9MW4+NllGieo1gcsW0VXHRo=
-----END CERTIFICATE-----
